target datalayout = "e-m:e-p270:32:32-p271:32:32-p272:64:64-i64:64-i128:128-f80:128-n8:16:32:64-S128"
target triple = "x86_64-pc-linux-gnu"

@.str.17 = private unnamed_addr constant [15 x i8] c"JDWP-Handshake\00", align 1
@.str.18 = private unnamed_addr constant [25 x i8] c"timeout during handshake\00", align 1
@.str.19 = private unnamed_addr constant [50 x i8] c"handshake failed - connection prematurally closed\00", align 1
@.str.20 = private unnamed_addr constant [29 x i8] c"recv failed during handshake\00", align 1
@.str.21 = private unnamed_addr constant [49 x i8] c"handshake failed - received >%s< - expected >%s<\00", align 1
@.str.22 = private unnamed_addr constant [29 x i8] c"send failed during handshake\00", align 1

; Function Attrs: nounwind uwtable
define internal i32 @send_fully(i32 noundef %0, ptr noundef %1, i32 noundef %2) #0 {
  %4 = alloca i32, align 4
  %5 = alloca i32, align 4
  %6 = alloca ptr, align 8
  %7 = alloca i32, align 4
  %8 = alloca i32, align 4
  %9 = alloca i32, align 4
  store i32 %0, ptr %5, align 4
  store ptr %1, ptr %6, align 8
  store i32 %2, ptr %7, align 4
  store i32 0, ptr %8, align 4
  br label %10

10:                                               ; preds = %34, %3
  %11 = load i32, ptr %8, align 4
  %12 = load i32, ptr %7, align 4
  %13 = icmp slt i32 %11, %12
  br i1 %13, label %14, label %38

14:                                               ; preds = %10
  %15 = load i32, ptr %5, align 4
  %16 = load ptr, ptr %6, align 8
  %17 = load i32, ptr %8, align 4
  %18 = sext i32 %17 to i64
  %19 = getelementptr inbounds i8, ptr %16, i64 %18
  %20 = load i32, ptr %7, align 4
  %21 = load i32, ptr %8, align 4
  %22 = sub nsw i32 %20, %21
  %23 = sext i32 %22 to i64
  %24 = call i32 @dbgsysSend(i32 noundef %15, ptr noundef %19, i64 noundef %23, i32 noundef 0)
  store i32 %24, ptr %9, align 4
  %25 = load i32, ptr %9, align 4
  %26 = icmp slt i32 %25, 0
  br i1 %26, label %27, label %29

27:                                               ; preds = %14
  %28 = load i32, ptr %9, align 4
  store i32 %28, ptr %4, align 4
  br label %40

29:                                               ; preds = %14
  %30 = load i32, ptr %9, align 4
  %31 = icmp eq i32 %30, 0
  br i1 %31, label %32, label %33

32:                                               ; preds = %29
  br label %38

33:                                               ; preds = %29
  br label %34

34:                                               ; preds = %33
  %35 = load i32, ptr %9, align 4
  %36 = load i32, ptr %8, align 4
  %37 = add nsw i32 %36, %35
  store i32 %37, ptr %8, align 4
  br label %10, !llvm.loop !14

38:                                               ; preds = %32, %10
  %39 = load i32, ptr %8, align 4
  store i32 %39, ptr %4, align 4
  br label %40

40:                                               ; preds = %38, %27
  %41 = load i32, ptr %4, align 4
  ret i32 %41
}

; Function Attrs: nounwind uwtable
define internal i32 @recv_fully(i32 noundef %0, ptr noundef %1, i32 noundef %2) #0 {
  %4 = alloca i32, align 4
  %5 = alloca i32, align 4
  %6 = alloca ptr, align 8
  %7 = alloca i32, align 4
  %8 = alloca i32, align 4
  %9 = alloca i32, align 4
  store i32 %0, ptr %5, align 4
  store ptr %1, ptr %6, align 8
  store i32 %2, ptr %7, align 4
  store i32 0, ptr %8, align 4
  br label %10

10:                                               ; preds = %34, %3
  %11 = load i32, ptr %8, align 4
  %12 = load i32, ptr %7, align 4
  %13 = icmp slt i32 %11, %12
  br i1 %13, label %14, label %38

14:                                               ; preds = %10
  %15 = load i32, ptr %5, align 4
  %16 = load ptr, ptr %6, align 8
  %17 = load i32, ptr %8, align 4
  %18 = sext i32 %17 to i64
  %19 = getelementptr inbounds i8, ptr %16, i64 %18
  %20 = load i32, ptr %7, align 4
  %21 = load i32, ptr %8, align 4
  %22 = sub nsw i32 %20, %21
  %23 = sext i32 %22 to i64
  %24 = call i32 @dbgsysRecv(i32 noundef %15, ptr noundef %19, i64 noundef %23, i32 noundef 0)
  store i32 %24, ptr %9, align 4
  %25 = load i32, ptr %9, align 4
  %26 = icmp slt i32 %25, 0
  br i1 %26, label %27, label %29

27:                                               ; preds = %14
  %28 = load i32, ptr %9, align 4
  store i32 %28, ptr %4, align 4
  br label %40

29:                                               ; preds = %14
  %30 = load i32, ptr %9, align 4
  %31 = icmp eq i32 %30, 0
  br i1 %31, label %32, label %33

32:                                               ; preds = %29
  br label %38

33:                                               ; preds = %29
  br label %34

34:                                               ; preds = %33
  %35 = load i32, ptr %9, align 4
  %36 = load i32, ptr %8, align 4
  %37 = add nsw i32 %36, %35
  store i32 %37, ptr %8, align 4
  br label %10, !llvm.loop !13

38:                                               ; preds = %32, %10
  %39 = load i32, ptr %8, align 4
  store i32 %39, ptr %4, align 4
  br label %40

40:                                               ; preds = %38, %27
  %41 = load i32, ptr %4, align 4
  ret i32 %41
}

; Function Attrs: nounwind uwtable
define internal i32 @handshake(i32 noundef %0, i64 noundef %1) #0 {
  %3 = alloca i32, align 4
  %4 = alloca i32, align 4
  %5 = alloca i64, align 8
  %6 = alloca ptr, align 8
  %7 = alloca [16 x i8], align 16
  %8 = alloca i32, align 4
  %9 = alloca i32, align 4
  %10 = alloca i32, align 4
  %11 = alloca i32, align 4
  %12 = alloca ptr, align 8
  %13 = alloca [112 x i8], align 16
  store i32 %0, ptr %4, align 4
  store i64 %1, ptr %5, align 8
  store ptr @.str.17, ptr %6, align 8
  %14 = load i64, ptr %5, align 8
  %15 = icmp sgt i64 %14, 0
  br i1 %15, label %16, label %19

16:                                               ; preds = %2
  %17 = load i32, ptr %4, align 4
  %18 = call i32 @dbgsysConfigureBlocking(i32 noundef %17, i8 noundef zeroext 0)
  br label %19

19:                                               ; preds = %16, %2
  %20 = load ptr, ptr %6, align 8
  %21 = call i64 @strlen(ptr noundef %20) #7
  %22 = trunc i64 %21 to i32
  store i32 %22, ptr %9, align 4
  store i32 0, ptr %10, align 4
  br label %23

23:                                               ; preds = %57, %19
  %24 = load i32, ptr %10, align 4
  %25 = load i32, ptr %9, align 4
  %26 = icmp slt i32 %24, %25
  br i1 %26, label %27, label %61

27:                                               ; preds = %23
  %28 = load i64, ptr %5, align 8
  %29 = icmp sgt i64 %28, 0
  br i1 %29, label %30, label %38

30:                                               ; preds = %27
  %31 = load i32, ptr %4, align 4
  %32 = load i64, ptr %5, align 8
  %33 = call i32 @dbgsysPoll(i32 noundef %31, i8 noundef zeroext 1, i8 noundef zeroext 0, i64 noundef %32)
  store i32 %33, ptr %8, align 4
  %34 = load i32, ptr %8, align 4
  %35 = icmp sle i32 %34, 0
  br i1 %35, label %36, label %37

36:                                               ; preds = %30
  call void @setLastError(i32 noundef 0, ptr noundef @.str.18)
  store i32 202, ptr %3, align 4
  br label %92

37:                                               ; preds = %30
  br label %38

38:                                               ; preds = %37, %27
  %39 = getelementptr inbounds [16 x i8], ptr %7, i64 0, i64 0
  store ptr %39, ptr %12, align 8
  %40 = load i32, ptr %10, align 4
  %41 = load ptr, ptr %12, align 8
  %42 = sext i32 %40 to i64
  %43 = getelementptr inbounds i8, ptr %41, i64 %42
  store ptr %43, ptr %12, align 8
  %44 = load i32, ptr %4, align 4
  %45 = load ptr, ptr %12, align 8
  %46 = load i32, ptr %9, align 4
  %47 = load i32, ptr %10, align 4
  %48 = sub nsw i32 %46, %47
  %49 = call i32 @recv_fully(i32 noundef %44, ptr noundef %45, i32 noundef %48)
  store i32 %49, ptr %11, align 4
  %50 = load i32, ptr %11, align 4
  %51 = icmp eq i32 %50, 0
  br i1 %51, label %52, label %53

52:                                               ; preds = %38
  call void @setLastError(i32 noundef 0, ptr noundef @.str.19)
  store i32 202, ptr %3, align 4
  br label %92

53:                                               ; preds = %38
  %54 = load i32, ptr %11, align 4
  %55 = icmp slt i32 %54, 0
  br i1 %55, label %56, label %57

56:                                               ; preds = %53
  call void @setLastError(i32 noundef 202, ptr noundef @.str.20)
  store i32 202, ptr %3, align 4
  br label %92

57:                                               ; preds = %53
  %58 = load i32, ptr %11, align 4
  %59 = load i32, ptr %10, align 4
  %60 = add nsw i32 %59, %58
  store i32 %60, ptr %10, align 4
  br label %23, !llvm.loop !12

61:                                               ; preds = %23
  %62 = load i64, ptr %5, align 8
  %63 = icmp sgt i64 %62, 0
  br i1 %63, label %64, label %67

64:                                               ; preds = %61
  %65 = load i32, ptr %4, align 4
  %66 = call i32 @dbgsysConfigureBlocking(i32 noundef %65, i8 noundef zeroext 1)
  br label %67

67:                                               ; preds = %64, %61
  %68 = getelementptr inbounds [16 x i8], ptr %7, i64 0, i64 0
  %69 = load ptr, ptr %6, align 8
  %70 = load i32, ptr %10, align 4
  %71 = sext i32 %70 to i64
  %72 = call i32 @strncmp(ptr noundef %68, ptr noundef %69, i64 noundef %71) #7
  %73 = icmp ne i32 %72, 0
  br i1 %73, label %74, label %83

74:                                               ; preds = %67
  %75 = load i32, ptr %10, align 4
  %76 = sext i32 %75 to i64
  %77 = getelementptr inbounds [16 x i8], ptr %7, i64 0, i64 %76
  store i8 0, ptr %77, align 1
  %78 = getelementptr inbounds [112 x i8], ptr %13, i64 0, i64 0
  %79 = getelementptr inbounds [16 x i8], ptr %7, i64 0, i64 0
  %80 = load ptr, ptr %6, align 8
  %81 = call i32 (ptr, i64, ptr, ...) @snprintf(ptr noundef %78, i64 noundef 112, ptr noundef @.str.21, ptr noundef %79, ptr noundef %80) #6
  %82 = getelementptr inbounds [112 x i8], ptr %13, i64 0, i64 0
  call void @setLastError(i32 noundef 0, ptr noundef %82)
  store i32 202, ptr %3, align 4
  br label %92

83:                                               ; preds = %67
  %84 = load i32, ptr %4, align 4
  %85 = load ptr, ptr %6, align 8
  %86 = load i32, ptr %9, align 4
  %87 = call i32 @send_fully(i32 noundef %84, ptr noundef %85, i32 noundef %86)
  %88 = load i32, ptr %9, align 4
  %89 = icmp ne i32 %87, %88
  br i1 %89, label %90, label %91

90:                                               ; preds = %83
  call void @setLastError(i32 noundef 202, ptr noundef @.str.22)
  store i32 202, ptr %3, align 4
  br label %92

91:                                               ; preds = %83
  store i32 0, ptr %3, align 4
  br label %92

92:                                               ; preds = %91, %90, %74, %56, %52, %36
  %93 = load i32, ptr %3, align 4
  ret i32 %93
}