; Function Attrs: nounwind uwtable
define internal fastcc range(i32 0, 203) i32 @handshake(i32 noundef %0, i64 noundef %1) unnamed_addr #0 {
  %3 = alloca [16 x i8], align 16
  %4 = alloca [112 x i8], align 16
  %5 = icmp sgt i64 %1, 0
  br i1 %5, label %6, label %.split

6:                                                ; preds = %2
  %7 = tail call i32 @dbgsysConfigureBlocking(i32 noundef %0, i8 noundef zeroext 0) #13
  br label %.split.us

.split.us:                                        ; preds = %6, %recv_fully.exit.thread.us
  %.02959.us = phi i32 [ %26, %recv_fully.exit.thread.us ], [ 0, %6 ]
  %8 = call i32 @dbgsysPoll(i32 noundef %0, i8 noundef zeroext 1, i8 noundef zeroext 0, i64 noundef %1) #13
  %9 = icmp slt i32 %8, 1
  br i1 %9, label %.split61.us, label %10

10:                                               ; preds = %.split.us
  %11 = zext nneg i32 %.02959.us to i64
  %12 = getelementptr inbounds i8, ptr %3, i64 %11
  %13 = sub nsw i32 14, %.02959.us
  br label %.lr.ph.i.us

.lr.ph.i.us:                                      ; preds = %22, %10
  %.01316.i.us = phi i32 [ %23, %22 ], [ 0, %10 ]
  %14 = zext nneg i32 %.01316.i.us to i64
  %15 = getelementptr inbounds i8, ptr %12, i64 %14
  %16 = sub nsw i32 %13, %.01316.i.us
  %17 = sext i32 %16 to i64
  %18 = call i32 @dbgsysRecv(i32 noundef %0, ptr noundef nonnull %15, i64 noundef %17, i32 noundef 0) #13
  %19 = icmp slt i32 %18, 0
  br i1 %19, label %recv_fully.exit.thread.thread, label %20

20:                                               ; preds = %.lr.ph.i.us
  %21 = icmp eq i32 %18, 0
  br i1 %21, label %recv_fully.exit.us, label %22

22:                                               ; preds = %20
  %23 = add nuw nsw i32 %18, %.01316.i.us
  %24 = icmp slt i32 %23, %13
  br i1 %24, label %.lr.ph.i.us, label %recv_fully.exit.thread.us, !llvm.loop !15

recv_fully.exit.us:                               ; preds = %20
  %25 = icmp eq i32 %.01316.i.us, 0
  br i1 %25, label %recv_fully.exit.thread48, label %recv_fully.exit.thread.us

recv_fully.exit.thread.us:                        ; preds = %22, %recv_fully.exit.us
  %.0.i3447.us = phi i32 [ %.01316.i.us, %recv_fully.exit.us ], [ %23, %22 ]
  %26 = add nuw nsw i32 %.0.i3447.us, %.02959.us
  %27 = icmp slt i32 %26, 14
  br i1 %27, label %.split.us, label %.split63.us, !llvm.loop !21

.split:                                           ; preds = %2, %recv_fully.exit.thread
  %.02959 = phi i32 [ %67, %recv_fully.exit.thread ], [ 0, %2 ]
  %28 = zext nneg i32 %.02959 to i64
  %29 = getelementptr inbounds i8, ptr %3, i64 %28
  %30 = sub nsw i32 14, %.02959
  br label %.lr.ph.i

.split61.us:                                      ; preds = %.split.us
  %31 = load i32, ptr @tlsIndex, align 4
  %32 = call ptr @dbgsysTlsGet(i32 noundef %31) #13
  %.not.i = icmp eq ptr %32, null
  br i1 %.not.i, label %37, label %33

33:                                               ; preds = %.split61.us
  %34 = load ptr, ptr @callback, align 8
  %35 = getelementptr inbounds i8, ptr %34, i64 8
  %36 = load ptr, ptr %35, align 8
  call void %36(ptr noundef nonnull %32) #13
  br label %37

37:                                               ; preds = %33, %.split61.us
  %38 = load ptr, ptr @callback, align 8
  %39 = load ptr, ptr %38, align 8
  %40 = call ptr %39(i32 noundef 25) #13
  %.not21.i = icmp eq ptr %40, null
  br i1 %.not21.i, label %setLastError.exit, label %41

41:                                               ; preds = %37
  call void @llvm.memcpy.p0.p0.i64(ptr noundef nonnull align 1 dereferenceable(25) %40, ptr noundef nonnull readonly align 1 dereferenceable(25) @.str.18, i64 25, i1 false) #13
  br label %setLastError.exit

setLastError.exit:                                ; preds = %37, %41
  %42 = load i32, ptr @tlsIndex, align 4
  call void @dbgsysTlsPut(i32 noundef %42, ptr noundef %40) #13
  br label %101

.lr.ph.i:                                         ; preds = %.split, %51
  %.01316.i = phi i32 [ %52, %51 ], [ 0, %.split ]
  %43 = zext nneg i32 %.01316.i to i64
  %44 = getelementptr inbounds i8, ptr %29, i64 %43
  %45 = sub nsw i32 %30, %.01316.i
  %46 = sext i32 %45 to i64
  %47 = call i32 @dbgsysRecv(i32 noundef %0, ptr noundef nonnull %44, i64 noundef %46, i32 noundef 0) #13
  %48 = icmp slt i32 %47, 0
  br i1 %48, label %recv_fully.exit.thread.thread, label %49

49:                                               ; preds = %.lr.ph.i
  %50 = icmp eq i32 %47, 0
  br i1 %50, label %recv_fully.exit, label %51

51:                                               ; preds = %49
  %52 = add nuw nsw i32 %47, %.01316.i
  %53 = icmp slt i32 %52, %30
  br i1 %53, label %.lr.ph.i, label %recv_fully.exit.thread, !llvm.loop !15

recv_fully.exit:                                  ; preds = %49
  %54 = icmp eq i32 %.01316.i, 0
  br i1 %54, label %recv_fully.exit.thread48, label %recv_fully.exit.thread

recv_fully.exit.thread48:                         ; preds = %recv_fully.exit, %recv_fully.exit.us
  %55 = load i32, ptr @tlsIndex, align 4
  %56 = call ptr @dbgsysTlsGet(i32 noundef %55) #13
  %.not.i35 = icmp eq ptr %56, null
  br i1 %.not.i35, label %61, label %57

57:                                               ; preds = %recv_fully.exit.thread48
  %58 = load ptr, ptr @callback, align 8
  %59 = getelementptr inbounds i8, ptr %58, i64 8
  %60 = load ptr, ptr %59, align 8
  call void %60(ptr noundef nonnull %56) #13
  br label %61

61:                                               ; preds = %57, %recv_fully.exit.thread48
  %62 = load ptr, ptr @callback, align 8
  %63 = load ptr, ptr %62, align 8
  %64 = call ptr %63(i32 noundef 50) #13
  %.not21.i36 = icmp eq ptr %64, null
  br i1 %.not21.i36, label %setLastError.exit38, label %65

65:                                               ; preds = %61
  call void @llvm.memcpy.p0.p0.i64(ptr noundef nonnull align 1 dereferenceable(50) %64, ptr noundef nonnull readonly align 1 dereferenceable(50) @.str.19, i64 50, i1 false) #13
  br label %setLastError.exit38

setLastError.exit38:                              ; preds = %61, %65
  %66 = load i32, ptr @tlsIndex, align 4
  call void @dbgsysTlsPut(i32 noundef %66, ptr noundef %64) #13
  br label %101

recv_fully.exit.thread.thread:                    ; preds = %.lr.ph.i, %.lr.ph.i.us
  call fastcc void @setLastError(i32 noundef 202, ptr noundef nonnull @.str.20)
  br label %101

recv_fully.exit.thread:                           ; preds = %51, %recv_fully.exit
  %.0.i3447 = phi i32 [ %.01316.i, %recv_fully.exit ], [ %52, %51 ]
  %67 = add nuw nsw i32 %.0.i3447, %.02959
  %68 = icmp slt i32 %67, 14
  br i1 %68, label %.split, label %.split63.us, !llvm.loop !21

.split63.us:                                      ; preds = %recv_fully.exit.thread, %recv_fully.exit.thread.us
  %.us-phi = phi i32 [ %26, %recv_fully.exit.thread.us ], [ %67, %recv_fully.exit.thread ]
  br i1 %5, label %69, label %71

69:                                               ; preds = %.split63.us
  %70 = call i32 @dbgsysConfigureBlocking(i32 noundef %0, i8 noundef zeroext 1) #13
  br label %71

71:                                               ; preds = %69, %.split63.us
  %72 = zext nneg i32 %.us-phi to i64
  %73 = call i32 @strncmp(ptr noundef nonnull dereferenceable(1) %3, ptr noundef nonnull dereferenceable(1) @.str.17, i64 noundef %72) #14
  %.not = icmp eq i32 %73, 0
  br i1 %.not, label %.lr.ph.i43, label %74

74:                                               ; preds = %71
  %75 = getelementptr inbounds [16 x i8], ptr %3, i64 0, i64 %72
  store i8 0, ptr %75, align 1
  %76 = call i32 (ptr, i64, ptr, ...) @snprintf(ptr noundef nonnull dereferenceable(1) %4, i64 noundef 112, ptr noundef nonnull @.str.21, ptr noundef nonnull %3, ptr noundef nonnull @.str.17) #13
  %77 = load i32, ptr @tlsIndex, align 4
  %78 = call ptr @dbgsysTlsGet(i32 noundef %77) #13
  %.not.i39 = icmp eq ptr %78, null
  br i1 %.not.i39, label %83, label %79

79:                                               ; preds = %74
  %80 = load ptr, ptr @callback, align 8
  %81 = getelementptr inbounds i8, ptr %80, i64 8
  %82 = load ptr, ptr %81, align 8
  call void %82(ptr noundef nonnull %78) #13
  br label %83

83:                                               ; preds = %79, %74
  %84 = load ptr, ptr @callback, align 8
  %85 = load ptr, ptr %84, align 8
  %86 = call i64 @strlen(ptr noundef nonnull readonly dereferenceable(1) %4) #14
  %87 = trunc i64 %86 to i32
  %88 = add nsw i32 %87, 1
  %89 = call ptr %85(i32 noundef %88) #13
  %.not21.i40 = icmp eq ptr %89, null
  br i1 %.not21.i40, label %setLastError.exit42, label %90

90:                                               ; preds = %83
  %91 = call ptr @strcpy(ptr noundef nonnull dereferenceable(1) %89, ptr noundef nonnull readonly dereferenceable(1) %4) #13
  br label %setLastError.exit42

setLastError.exit42:                              ; preds = %83, %90
  %92 = load i32, ptr @tlsIndex, align 4
  call void @dbgsysTlsPut(i32 noundef %92, ptr noundef %89) #13
  br label %101

.lr.ph.i43:                                       ; preds = %71, %98
  %.01316.i44 = phi i32 [ %99, %98 ], [ 0, %71 ]
  %93 = zext nneg i32 %.01316.i44 to i64
  %94 = getelementptr inbounds i8, ptr @.str.17, i64 %93
  %95 = sub nsw i32 14, %.01316.i44
  %96 = zext nneg i32 %95 to i64
  %97 = call i32 @dbgsysSend(i32 noundef %0, ptr noundef nonnull %94, i64 noundef %96, i32 noundef 0) #13
  %or.cond = icmp slt i32 %97, 1
  br i1 %or.cond, label %send_fully.exit.thread, label %98

98:                                               ; preds = %.lr.ph.i43
  %99 = add nuw nsw i32 %97, %.01316.i44
  %100 = icmp slt i32 %99, 14
  br i1 %100, label %.lr.ph.i43, label %send_fully.exit, !llvm.loop !16

send_fully.exit:                                  ; preds = %98
  %.not33 = icmp eq i32 %99, 14
  br i1 %.not33, label %101, label %send_fully.exit.thread

send_fully.exit.thread:                           ; preds = %.lr.ph.i43, %send_fully.exit
  call fastcc void @setLastError(i32 noundef 202, ptr noundef nonnull @.str.22)
  br label %101

101:                                              ; preds = %send_fully.exit, %send_fully.exit.thread, %setLastError.exit42, %recv_fully.exit.thread.thread, %setLastError.exit38, %setLastError.exit
  %.0 = phi i32 [ 202, %setLastError.exit ], [ 202, %setLastError.exit38 ], [ 202, %recv_fully.exit.thread.thread ], [ 202, %setLastError.exit42 ], [ 202, %send_fully.exit.thread ], [ 0, %send_fully.exit ]
  ret i32 %.0
}